target datalayout = "e-m:e-p270:32:32-p271:32:32-p272:64:64-i64:64-i128:128-f80:128-n8:16:32:64-S128"
target triple = "x86_64-pc-linux-gnu"

%class.btSoftBodyConcaveCollisionAlgorithm = type { %class.btCollisionAlgorithm, i8, [7 x i8], %class.btSoftBodyTriangleCallback }
%class.btCollisionAlgorithm = type { ptr, ptr }
%class.btSoftBodyTriangleCallback = type <{ %class.btTriangleCallback, ptr, ptr, %class.btVector3, %class.btVector3, ptr, ptr, ptr, float, [4 x i8], %class.btHashMap, i32, [4 x i8] }>
%class.btTriangleCallback = type { ptr }
%class.btVector3 = type { [4 x float] }
%class.btHashMap = type { %class.btAlignedObjectArray, %class.btAlignedObjectArray, %class.btAlignedObjectArray.0, %class.btAlignedObjectArray.2 }
%class.btAlignedObjectArray = type <{ [4 x i8], i32, i32, [4 x i8], ptr, i8, [7 x i8] }>
%class.btAlignedObjectArray.0 = type <{ [4 x i8], i32, i32, [4 x i8], ptr, i8, [7 x i8] }>
%class.btAlignedObjectArray.2 = type <{ [4 x i8], i32, i32, [4 x i8], ptr, i8, [7 x i8] }>
%struct.btCollisionAlgorithmConstructionInfo = type { ptr, ptr }

@_ZN26btSoftBodyTriangleCallbackC1EP12btDispatcherPK24btCollisionObjectWrapperS4_b = dso_local unnamed_addr alias void (ptr, ptr, ptr, ptr, i1), ptr @_ZN26btSoftBodyTriangleCallbackC2EP12btDispatcherPK24btCollisionObjectWrapperS4_b

; Function Attrs: mustprogress nounwind uwtable
define linkonce_odr dso_local void @_ZN20btCollisionAlgorithmD2Ev(ptr noundef nonnull align 8 dereferenceable(16) %0) unnamed_addr #1 comdat align 2 {
  %2 = alloca ptr, align 8
  store ptr %0, ptr %2, align 8, !tbaa !49
  ret void
}

; Function Attrs: mustprogress uwtable
define dso_local void @_ZN35btSoftBodyConcaveCollisionAlgorithmC2ERK36btCollisionAlgorithmConstructionInfoPK24btCollisionObjectWrapperS5_b(ptr noundef nonnull align 8 dereferenceable(248) %0, ptr noundef nonnull align 8 dereferenceable(16) %1, ptr noundef %2, ptr noundef %3, i1 noundef zeroext %4) unnamed_addr #2 align 2 personality ptr @__gxx_personality_v0 {
  %6 = alloca ptr, align 8
  %7 = alloca ptr, align 8
  %8 = alloca ptr, align 8
  %9 = alloca ptr, align 8
  %10 = alloca i8, align 1
  %11 = alloca ptr, align 8
  %12 = alloca i32, align 4
  store ptr %0, ptr %6, align 8, !tbaa !12
  store ptr %1, ptr %7, align 8, !tbaa !14
  store ptr %2, ptr %8, align 8, !tbaa !16
  store ptr %3, ptr %9, align 8, !tbaa !16
  %13 = zext i1 %4 to i8
  store i8 %13, ptr %10, align 1, !tbaa !18
  %14 = load ptr, ptr %6, align 8
  %15 = load ptr, ptr %7, align 8, !tbaa !14
  call void @_ZN20btCollisionAlgorithmC2ERK36btCollisionAlgorithmConstructionInfo(ptr noundef nonnull align 8 dereferenceable(16) %14, ptr noundef nonnull align 8 dereferenceable(16) %15)
  store ptr getelementptr inbounds inrange(-16, 40) ({ [7 x ptr] }, ptr @_ZTV35btSoftBodyConcaveCollisionAlgorithm, i32 0, i32 0, i32 2), ptr %14, align 8, !tbaa !20
  %16 = getelementptr inbounds nuw %class.btSoftBodyConcaveCollisionAlgorithm, ptr %14, i32 0, i32 1
  %17 = load i8, ptr %10, align 1, !tbaa !18, !range !22, !noundef !23
  %18 = trunc i8 %17 to i1
  %19 = zext i1 %18 to i8
  store i8 %19, ptr %16, align 8, !tbaa !24
  %20 = getelementptr inbounds nuw %class.btSoftBodyConcaveCollisionAlgorithm, ptr %14, i32 0, i32 3
  %21 = load ptr, ptr %7, align 8, !tbaa !14
  %22 = getelementptr inbounds nuw %struct.btCollisionAlgorithmConstructionInfo, ptr %21, i32 0, i32 0
  %23 = load ptr, ptr %22, align 8, !tbaa !46
  %24 = load ptr, ptr %8, align 8, !tbaa !16
  %25 = load ptr, ptr %9, align 8, !tbaa !16
  %26 = load i8, ptr %10, align 1, !tbaa !18, !range !22, !noundef !23
  %27 = trunc i8 %26 to i1
  invoke void @_ZN26btSoftBodyTriangleCallbackC1EP12btDispatcherPK24btCollisionObjectWrapperS4_b(ptr noundef nonnull align 8 dereferenceable(220) %20, ptr noundef %23, ptr noundef %24, ptr noundef %25, i1 noundef zeroext %27)
          to label %28 unwind label %29

28:                                               ; preds = %5
  ret void

29:                                               ; preds = %5
  %30 = landingpad { ptr, i32 }
          cleanup
  %31 = extractvalue { ptr, i32 } %30, 0
  store ptr %31, ptr %11, align 8
  %32 = extractvalue { ptr, i32 } %30, 1
  store i32 %32, ptr %12, align 4
  call void @_ZN20btCollisionAlgorithmD2Ev(ptr noundef nonnull align 8 dereferenceable(16) %14) #14
  br label %33

33:                                               ; preds = %29
  %34 = load ptr, ptr %11, align 8
  %35 = load i32, ptr %12, align 4
  %36 = insertvalue { ptr, i32 } poison, ptr %34, 0
  %37 = insertvalue { ptr, i32 } %36, i32 %35, 1
  resume { ptr, i32 } %37
}