; Function Attrs: mustprogress uwtable
define dso_local void @_ZN35btSoftBodyConcaveCollisionAlgorithmC2ERK36btCollisionAlgorithmConstructionInfoPK24btCollisionObjectWrapperS5_b(ptr noundef nonnull align 8 dereferenceable(248) %0, ptr noundef nonnull align 8 dereferenceable(16) %1, ptr noundef readonly captures(none) %2, ptr noundef readonly captures(none) %3, i1 noundef zeroext %4) unnamed_addr #0 align 2 personality ptr @__gxx_personality_v0 {
  %6 = zext i1 %4 to i8
  tail call void @_ZN20btCollisionAlgorithmC2ERK36btCollisionAlgorithmConstructionInfo(ptr noundef nonnull align 8 dereferenceable(16) %0, ptr noundef nonnull align 8 dereferenceable(16) %1)
  store ptr getelementptr inbounds nuw inrange(-16, 40) (i8, ptr @_ZTV35btSoftBodyConcaveCollisionAlgorithm, i64 16), ptr %0, align 8, !tbaa !4
  %7 = getelementptr inbounds nuw i8, ptr %0, i64 16
  store i8 %6, ptr %7, align 8, !tbaa !7
  %8 = getelementptr inbounds nuw i8, ptr %0, i64 24
  %9 = load ptr, ptr %1, align 8, !tbaa !33
  store ptr getelementptr inbounds nuw inrange(-16, 24) (i8, ptr @_ZTV26btSoftBodyTriangleCallback, i64 16), ptr %8, align 8, !tbaa !4
  %10 = getelementptr inbounds nuw i8, ptr %0, i64 88
  store ptr %9, ptr %10, align 8, !tbaa !36
  %11 = getelementptr inbounds nuw i8, ptr %0, i64 96
  store ptr null, ptr %11, align 8, !tbaa !37
  %12 = getelementptr inbounds nuw i8, ptr %0, i64 112
  %13 = getelementptr inbounds nuw i8, ptr %0, i64 136
  store i8 1, ptr %13, align 8, !tbaa !38
  %14 = getelementptr inbounds nuw i8, ptr %0, i64 128
  store ptr null, ptr %14, align 8, !tbaa !39
  %15 = getelementptr inbounds nuw i8, ptr %0, i64 116
  store i32 0, ptr %15, align 4, !tbaa !40
  %16 = getelementptr inbounds nuw i8, ptr %0, i64 120
  store i32 0, ptr %16, align 8, !tbaa !41
  %17 = getelementptr inbounds nuw i8, ptr %0, i64 168
  store i8 1, ptr %17, align 8, !tbaa !38
  %18 = getelementptr inbounds nuw i8, ptr %0, i64 160
  store ptr null, ptr %18, align 8, !tbaa !39
  %19 = getelementptr inbounds nuw i8, ptr %0, i64 148
  store i32 0, ptr %19, align 4, !tbaa !40
  %20 = getelementptr inbounds nuw i8, ptr %0, i64 152
  store i32 0, ptr %20, align 8, !tbaa !41
  %21 = getelementptr inbounds nuw i8, ptr %0, i64 200
  store i8 1, ptr %21, align 8, !tbaa !42
  %22 = getelementptr inbounds nuw i8, ptr %0, i64 192
  store ptr null, ptr %22, align 8, !tbaa !43
  %23 = getelementptr inbounds nuw i8, ptr %0, i64 180
  store i32 0, ptr %23, align 4, !tbaa !44
  %24 = getelementptr inbounds nuw i8, ptr %0, i64 184
  store i32 0, ptr %24, align 8, !tbaa !45
  %25 = getelementptr inbounds nuw i8, ptr %0, i64 232
  store i8 1, ptr %25, align 8, !tbaa !46
  %26 = getelementptr inbounds nuw i8, ptr %0, i64 224
  store ptr null, ptr %26, align 8, !tbaa !47
  %27 = getelementptr inbounds nuw i8, ptr %0, i64 212
  store i32 0, ptr %27, align 4, !tbaa !48
  %28 = getelementptr inbounds nuw i8, ptr %0, i64 216
  store i32 0, ptr %28, align 8, !tbaa !49
  %29 = getelementptr inbounds nuw i8, ptr %0, i64 32
  %..i = select i1 %4, ptr %3, ptr %2
  %.12.i = select i1 %4, ptr %2, ptr %3
  %30 = getelementptr inbounds nuw i8, ptr %..i, i64 16
  %31 = load ptr, ptr %30, align 8, !tbaa !50
  store ptr %31, ptr %29, align 8, !tbaa !55
  %.in.i = getelementptr inbounds nuw i8, ptr %.12.i, i64 16
  %32 = load ptr, ptr %.in.i, align 8, !tbaa !50
  %33 = getelementptr inbounds nuw i8, ptr %0, i64 40
  store ptr %32, ptr %33, align 8, !tbaa !56
  invoke void @_ZN9btHashMapI9btHashKeyI10btTriIndexES1_E5clearEv(ptr noundef nonnull align 8 dereferenceable(128) %12)
          to label %_ZN26btSoftBodyTriangleCallbackC2EP12btDispatcherPK24btCollisionObjectWrapperS4_b.exit unwind label %.body

.body:                                            ; preds = %5
  %34 = landingpad { ptr, i32 }
          cleanup
  tail call void @_ZN9btHashMapI9btHashKeyI10btTriIndexES1_ED2Ev(ptr noundef nonnull align 8 dereferenceable(128) %12) #15
  tail call void @_ZN18btTriangleCallbackD2Ev(ptr noundef nonnull align 8 dereferenceable(220) %8) #15
  resume { ptr, i32 } %34

_ZN26btSoftBodyTriangleCallbackC2EP12btDispatcherPK24btCollisionObjectWrapperS4_b.exit: ; preds = %5
  ret void
}